target datalayout = "e-m:e-p270:32:32-p271:32:32-p272:64:64-i64:64-i128:128-f80:128-n8:16:32:64-S128"
target triple = "x86_64-pc-linux-gnu"

@.str.42 = private unnamed_addr constant [3 x i8] c"%s\00", align 1
@.str.97 = private unnamed_addr constant [2 x i8] c" \00", align 1
@.str.98 = private unnamed_addr constant [2 x i8] c"\0A\00", align 1

; Function Attrs: nounwind uwtable
define internal void @print_flags(ptr noundef %0, ptr noundef %1) #0 {
  %3 = alloca ptr, align 8
  %4 = alloca ptr, align 8
  %5 = alloca i32, align 4
  %6 = alloca i8, align 1
  store ptr %0, ptr %3, align 8, !tbaa !8
  store ptr %1, ptr %4, align 8, !tbaa !11
  call void @llvm.lifetime.start.p0(i64 4, ptr %5) #9
  call void @llvm.lifetime.start.p0(i64 1, ptr %6) #9
  store i8 0, ptr %6, align 1, !tbaa !13
  store i32 0, ptr %5, align 4, !tbaa !4
  br label %7

7:                                                ; preds = %41, %2
  %8 = load ptr, ptr %3, align 8, !tbaa !8
  %9 = load i32, ptr %5, align 4, !tbaa !4
  %10 = sext i32 %9 to i64
  %11 = getelementptr inbounds ptr, ptr %8, i64 %10
  %12 = load ptr, ptr %11, align 8, !tbaa !11
  %13 = icmp ne ptr %12, null
  br i1 %13, label %14, label %44

14:                                               ; preds = %7
  %15 = load ptr, ptr %3, align 8, !tbaa !8
  %16 = load i32, ptr %5, align 4, !tbaa !4
  %17 = sext i32 %16 to i64
  %18 = getelementptr inbounds ptr, ptr %15, i64 %17
  %19 = load ptr, ptr %18, align 8, !tbaa !11
  %20 = load ptr, ptr %4, align 8, !tbaa !11
  %21 = load ptr, ptr %4, align 8, !tbaa !11
  %22 = call i64 @strlen(ptr noundef %21) #11
  %23 = call i32 @strncmp(ptr noundef %19, ptr noundef %20, i64 noundef %22) #11
  %24 = icmp eq i32 0, %23
  br i1 %24, label %25, label %40

25:                                               ; preds = %14
  %26 = load i8, ptr %6, align 1, !tbaa !13, !range !36, !noundef !37
  %27 = trunc i8 %26 to i1
  br i1 %27, label %28, label %30

28:                                               ; preds = %25
  %29 = call i32 (ptr, ...) @printf(ptr noundef @.str.97)
  br label %30

30:                                               ; preds = %28, %25
  %31 = load ptr, ptr %3, align 8, !tbaa !8
  %32 = load i32, ptr %5, align 4, !tbaa !4
  %33 = sext i32 %32 to i64
  %34 = getelementptr inbounds ptr, ptr %31, i64 %33
  %35 = load ptr, ptr %34, align 8, !tbaa !11
  %36 = load ptr, ptr %4, align 8, !tbaa !11
  %37 = call i64 @strlen(ptr noundef %36) #11
  %38 = getelementptr inbounds nuw i8, ptr %35, i64 %37
  %39 = call i32 (ptr, ...) @printf(ptr noundef @.str.42, ptr noundef %38)
  store i8 1, ptr %6, align 1, !tbaa !13
  br label %40

40:                                               ; preds = %30, %14
  br label %41

41:                                               ; preds = %40
  %42 = load i32, ptr %5, align 4, !tbaa !4
  %43 = add nsw i32 %42, 1
  store i32 %43, ptr %5, align 4, !tbaa !4
  br label %7, !llvm.loop !49

44:                                               ; preds = %7
  %45 = load i8, ptr %6, align 1, !tbaa !13, !range !36, !noundef !37
  %46 = trunc i8 %45 to i1
  br i1 %46, label %47, label %49

47:                                               ; preds = %44
  %48 = call i32 (ptr, ...) @printf(ptr noundef @.str.98)
  br label %49

49:                                               ; preds = %47, %44
  call void @llvm.lifetime.end.p0(i64 1, ptr %6) #9
  call void @llvm.lifetime.end.p0(i64 4, ptr %5) #9
  ret void
}