; Function Attrs: nofree nounwind uwtable
define internal fastcc void @print_flags(ptr noundef readonly captures(none) %0, ptr noundef readonly captures(none) %1) unnamed_addr #7 {
  %3 = load ptr, ptr %0, align 8, !tbaa !13
  %.not14 = icmp eq ptr %3, null
  br i1 %.not14, label %._crit_edge.thread, label %.lr.ph

.lr.ph:                                           ; preds = %2, %17
  %indvars.iv = phi i64 [ %indvars.iv.next, %17 ], [ 0, %2 ]
  %4 = phi ptr [ %19, %17 ], [ %3, %2 ]
  %.016 = phi i8 [ %.1, %17 ], [ 0, %2 ]
  %5 = getelementptr inbounds nuw ptr, ptr %0, i64 %indvars.iv
  %6 = tail call i64 @strlen(ptr noundef nonnull dereferenceable(1) %1) #18
  %7 = tail call i32 @strncmp(ptr noundef nonnull %4, ptr noundef nonnull %1, i64 noundef %6) #18
  %8 = icmp eq i32 %7, 0
  br i1 %8, label %9, label %17

9:                                                ; preds = %.lr.ph
  %10 = trunc nuw i8 %.016 to i1
  br i1 %10, label %11, label %12

11:                                               ; preds = %9
  %putchar13 = tail call i32 @putchar(i32 32)
  %.pre = load ptr, ptr %5, align 8, !tbaa !13
  br label %12

12:                                               ; preds = %11, %9
  %13 = phi ptr [ %.pre, %11 ], [ %4, %9 ]
  %14 = tail call i64 @strlen(ptr noundef nonnull dereferenceable(1) %1) #18
  %15 = getelementptr inbounds nuw i8, ptr %13, i64 %14
  %16 = tail call i32 (ptr, ...) @printf(ptr noundef nonnull dereferenceable(1) @.str.42, ptr noundef %15)
  br label %17

17:                                               ; preds = %.lr.ph, %12
  %.1 = phi i8 [ 1, %12 ], [ %.016, %.lr.ph ]
  %indvars.iv.next = add nuw nsw i64 %indvars.iv, 1
  %18 = getelementptr inbounds nuw ptr, ptr %0, i64 %indvars.iv.next
  %19 = load ptr, ptr %18, align 8, !tbaa !13
  %.not = icmp eq ptr %19, null
  br i1 %.not, label %._crit_edge, label %.lr.ph, !llvm.loop !48

._crit_edge:                                      ; preds = %17
  %20 = trunc nuw i8 %.1 to i1
  br i1 %20, label %21, label %._crit_edge.thread

21:                                               ; preds = %._crit_edge
  %putchar = tail call i32 @putchar(i32 10)
  br label %._crit_edge.thread

._crit_edge.thread:                               ; preds = %2, %21, %._crit_edge
  ret void
}